; Function Attrs: nounwind uwtable
define void @Ree_ManComputeCutsTest(ptr noundef %0) local_unnamed_addr #4 {
  %2 = alloca %struct.timespec, align 8
  %3 = alloca %struct.timespec, align 8
  call void @llvm.lifetime.start.p0(i64 16, ptr nonnull %3) #21
  %4 = call i32 @clock_gettime(i32 noundef 1, ptr noundef nonnull %3) #21
  %5 = icmp slt i32 %4, 0
  br i1 %5, label %Abc_Clock.exit, label %6

6:                                                ; preds = %1
  %7 = load i64, ptr %3, align 8, !tbaa !97
  %.neg10 = mul i64 %7, -1000000
  %8 = getelementptr inbounds nuw i8, ptr %3, i64 8
  %9 = load i64, ptr %8, align 8, !tbaa !99
  %.neg = sdiv i64 %9, -1000
  %.neg11 = add i64 %.neg, %.neg10
  br label %Abc_Clock.exit

Abc_Clock.exit:                                   ; preds = %1, %6
  %.0.i.neg = phi i64 [ %.neg11, %6 ], [ 1, %1 ]
  call void @llvm.lifetime.end.p0(i64 16, ptr nonnull %3) #21
  %10 = call ptr @Ree_ManComputeCuts(ptr noundef %0, ptr noundef null, i32 noundef 1)
  %11 = getelementptr i8, ptr %10, i64 4
  %.val.i = load i32, ptr %11, align 4, !tbaa !26
  %12 = icmp sgt i32 %.val.i, 0
  br i1 %12, label %.lr.ph.i, label %Ree_ManCountFadds.exit

.lr.ph.i:                                         ; preds = %Abc_Clock.exit
  %13 = getelementptr i8, ptr %10, i64 8
  %.val8.i = load ptr, ptr %13, align 8, !tbaa !24
  %invariant.gep.i = getelementptr inbounds nuw i8, ptr %.val8.i, i64 8
  %14 = add nsw i32 %.val.i, -1
  %15 = udiv i32 %14, 6
  %16 = add nuw nsw i32 %15, 1
  %wide.trip.count.i = zext nneg i32 %16 to i64
  br label %17

17:                                               ; preds = %17, %.lr.ph.i
  %indvars.iv11.i = phi i64 [ 0, %.lr.ph.i ], [ %indvars.iv.next12.i, %17 ]
  %indvars.iv.i = phi i64 [ 0, %.lr.ph.i ], [ %indvars.iv.next.i, %17 ]
  %.010.i = phi i32 [ 0, %.lr.ph.i ], [ %spec.select.i, %17 ]
  %gep.i = getelementptr inbounds nuw i32, ptr %invariant.gep.i, i64 %indvars.iv.i
  %18 = load i32, ptr %gep.i, align 4, !tbaa !17
  %.not.i = icmp ne i32 %18, 0
  %19 = zext i1 %.not.i to i32
  %spec.select.i = add nuw nsw i32 %.010.i, %19
  %indvars.iv.next12.i = add nuw nsw i64 %indvars.iv11.i, 1
  %indvars.iv.next.i = add nuw nsw i64 %indvars.iv.i, 6
  %exitcond.not.i = icmp eq i64 %indvars.iv.next12.i, %wide.trip.count.i
  br i1 %exitcond.not.i, label %Ree_ManCountFadds.exit, label %17, !llvm.loop !95

Ree_ManCountFadds.exit:                           ; preds = %17, %Abc_Clock.exit
  %.0.lcssa.i = phi i32 [ 0, %Abc_Clock.exit ], [ %spec.select.i, %17 ]
  call void @Ree_ManPrintAdders(ptr noundef %10, i32 noundef 1)
  %20 = sdiv i32 %.val.i, 6
  %21 = sub nsw i32 %20, %.0.lcssa.i
  %22 = call i32 (ptr, ...) @printf(ptr noundef nonnull dereferenceable(1) @.str.13, i32 noundef %.0.lcssa.i, i32 noundef %21)
  %23 = getelementptr inbounds nuw i8, ptr %10, i64 8
  %24 = load ptr, ptr %23, align 8, !tbaa !24
  %.not.i7 = icmp eq ptr %24, null
  br i1 %.not.i7, label %Vec_IntFree.exit, label %25

25:                                               ; preds = %Ree_ManCountFadds.exit
  call void @free(ptr noundef nonnull %24) #21
  br label %Vec_IntFree.exit

Vec_IntFree.exit:                                 ; preds = %Ree_ManCountFadds.exit, %25
  call void @free(ptr noundef nonnull %10) #21
  call void @llvm.lifetime.start.p0(i64 16, ptr nonnull %2) #21
  %26 = call i32 @clock_gettime(i32 noundef 1, ptr noundef nonnull %2) #21
  %27 = icmp slt i32 %26, 0
  br i1 %27, label %Abc_Clock.exit9, label %28

28:                                               ; preds = %Vec_IntFree.exit
  %29 = load i64, ptr %2, align 8, !tbaa !97
  %30 = mul nsw i64 %29, 1000000
  %31 = getelementptr inbounds nuw i8, ptr %2, i64 8
  %32 = load i64, ptr %31, align 8, !tbaa !99
  %33 = sdiv i64 %32, 1000
  %34 = add nsw i64 %33, %30
  br label %Abc_Clock.exit9

Abc_Clock.exit9:                                  ; preds = %Vec_IntFree.exit, %28
  %.0.i8 = phi i64 [ %34, %28 ], [ -1, %Vec_IntFree.exit ]
  call void @llvm.lifetime.end.p0(i64 16, ptr nonnull %2) #21
  %35 = add i64 %.0.i8, %.0.i.neg
  call void (i32, ptr, ...) @Abc_Print(i32 poison, ptr noundef nonnull @.str.17, ptr noundef nonnull @.str.14)
  %36 = sitofp i64 %35 to double
  %37 = fdiv double %36, 1.000000e+06
  call void (i32, ptr, ...) @Abc_Print(i32 poison, ptr noundef nonnull @.str.18, double noundef %37)
  ret void
}